(lp0
(lp1
S'_compcor_ncomponents_5_selector_pc11.linear1.wm1.global0.motion1.quadratic0.gm0.compcor1.csf1'
p2
aS'_csf_threshold_0.96'
p3
aS'_gm_threshold_0.7'
p4
aS'_target_angle_deg_90'
p5
aS'_threshold_0.2'
p6
aS'_wm_threshold_0.96'
p7
aa.